; Function Attrs: mustprogress nounwind uwtable
define internal void @_ZN13sentencepiece5model8FreeListIZNKS_3bpe5Model12SampleEncodeESt17basic_string_viewIcSt11char_traitsIcEEfE10SymbolPairED0Ev(ptr noundef nonnull align 8 dereferenceable(56) initializes((0, 8)) %0) unnamed_addr #4 align 2 personality ptr @__gxx_personality_v0 {
  store ptr getelementptr inbounds nuw inrange(-16, 16) (i8, ptr @_ZTVN13sentencepiece5model8FreeListIZNKS_3bpe5Model12SampleEncodeESt17basic_string_viewIcSt11char_traitsIcEEfE10SymbolPairEE, i64 16), ptr %0, align 8, !tbaa !3
  %2 = getelementptr inbounds nuw i8, ptr %0, i64 8
  %.val.i = load ptr, ptr %2, align 8, !tbaa !86
  %3 = getelementptr inbounds nuw i8, ptr %0, i64 16
  %.val4.i = load ptr, ptr %3, align 8, !tbaa !86
  %.not11.i = icmp eq ptr %.val.i, %.val4.i
  br i1 %.not11.i, label %._crit_edge.i, label %.lr.ph.i

._crit_edge.loopexit.i:                           ; preds = %12
  %.val7.pre.i = load ptr, ptr %2, align 8
  br label %._crit_edge.i

._crit_edge.i:                                    ; preds = %._crit_edge.loopexit.i, %1
  %.val7.i = phi ptr [ %.val7.pre.i, %._crit_edge.loopexit.i ], [ %.val.i, %1 ]
  %.not.i.i.i.i = icmp eq ptr %.val7.i, null
  br i1 %.not.i.i.i.i, label %_ZN13sentencepiece5model8FreeListIZNKS_3bpe5Model12SampleEncodeESt17basic_string_viewIcSt11char_traitsIcEEfE10SymbolPairED2Ev.exit, label %4

4:                                                ; preds = %._crit_edge.i
  %5 = getelementptr inbounds nuw i8, ptr %0, i64 24
  %.val8.i = load ptr, ptr %5, align 8
  %6 = ptrtoint ptr %.val8.i to i64
  %7 = ptrtoint ptr %.val7.i to i64
  %8 = sub i64 %6, %7
  tail call void @_ZdlPvm(ptr noundef nonnull %.val7.i, i64 noundef %8) #21
  br label %_ZN13sentencepiece5model8FreeListIZNKS_3bpe5Model12SampleEncodeESt17basic_string_viewIcSt11char_traitsIcEEfE10SymbolPairED2Ev.exit

.lr.ph.i:                                         ; preds = %1, %12
  %.sroa.010.012.i = phi ptr [ %13, %12 ], [ %.val.i, %1 ]
  %9 = load ptr, ptr %.sroa.010.012.i, align 8, !tbaa !88
  %10 = icmp eq ptr %9, null
  br i1 %10, label %12, label %11

11:                                               ; preds = %.lr.ph.i
  tail call void @_ZdaPv(ptr noundef nonnull %9) #21
  br label %12

12:                                               ; preds = %11, %.lr.ph.i
  %13 = getelementptr inbounds nuw i8, ptr %.sroa.010.012.i, i64 8
  %.not.i = icmp eq ptr %13, %.val4.i
  br i1 %.not.i, label %._crit_edge.loopexit.i, label %.lr.ph.i

_ZN13sentencepiece5model8FreeListIZNKS_3bpe5Model12SampleEncodeESt17basic_string_viewIcSt11char_traitsIcEEfE10SymbolPairED2Ev.exit: ; preds = %._crit_edge.i, %4
  tail call void @_ZdlPvm(ptr noundef nonnull %0, i64 noundef 56) #21
  ret void
}